; ModuleID = '14/691.c'
source_filename = "14/691.c"
target datalayout = "e-m:e-p270:32:32-p271:32:32-p272:64:64-i64:64-f80:128-n8:16:32:64-S128"
target triple = "x86_64-pc-linux-gnu"

%struct.st = type { i32, i32 }

@.str = private unnamed_addr constant [3 x i8] c"%d\00", align 1
@.str.1 = private unnamed_addr constant [7 x i8] c"%d%d%d\00", align 1
@s = common dso_local global [100000 x %struct.st] zeroinitializer, align 16
@.str.2 = private unnamed_addr constant [18 x i8] c"%d %d\0A%d %d\0A%d %d\00", align 1

; Function Attrs: noinline nounwind uwtable
define dso_local i32 @comp(i8* %0, i8* %1) #0 {
  %3 = alloca i8*, align 8
  %4 = alloca i8*, align 8
  store i8* %0, i8** %3, align 8
  store i8* %1, i8** %4, align 8
  %5 = load i8*, i8** %4, align 8
  %6 = bitcast i8* %5 to %struct.st*
  %7 = getelementptr inbounds %struct.st, %struct.st* %6, i32 0, i32 1
  %8 = load i32, i32* %7, align 4
  %9 = load i8*, i8** %3, align 8
  %10 = bitcast i8* %9 to %struct.st*
  %11 = getelementptr inbounds %struct.st, %struct.st* %10, i32 0, i32 1
  %12 = load i32, i32* %11, align 4
  %13 = sub nsw i32 %8, %12
  ret i32 %13
}

; Function Attrs: noinline nounwind uwtable
define dso_local i32 @main() #0 {
  %1 = alloca i32, align 4
  %2 = alloca i32, align 4
  %3 = alloca i32, align 4
  %4 = alloca i32, align 4
  %5 = alloca i32, align 4
  store i32 0, i32* %1, align 4
  %6 = call i32 (i8*, ...) @__isoc99_scanf(i8* getelementptr inbounds ([3 x i8], [3 x i8]* @.str, i64 0, i64 0), i32* %3)
  store i32 0, i32* %2, align 4
  br label %7

7:                                                ; preds = %24, %0
  %8 = load i32, i32* %2, align 4
  %9 = load i32, i32* %3, align 4
  %10 = icmp slt i32 %8, %9
  br i1 %10, label %11, label %27

11:                                               ; preds = %7
  %12 = load i32, i32* %2, align 4
  %13 = sext i32 %12 to i64
  %14 = getelementptr inbounds [100000 x %struct.st], [100000 x %struct.st]* @s, i64 0, i64 %13
  %15 = getelementptr inbounds %struct.st, %struct.st* %14, i32 0, i32 0
  %16 = call i32 (i8*, ...) @__isoc99_scanf(i8* getelementptr inbounds ([7 x i8], [7 x i8]* @.str.1, i64 0, i64 0), i32* %15, i32* %4, i32* %5)
  %17 = load i32, i32* %4, align 4
  %18 = load i32, i32* %5, align 4
  %19 = add nsw i32 %17, %18
  %20 = load i32, i32* %2, align 4
  %21 = sext i32 %20 to i64
  %22 = getelementptr inbounds [100000 x %struct.st], [100000 x %struct.st]* @s, i64 0, i64 %21
  %23 = getelementptr inbounds %struct.st, %struct.st* %22, i32 0, i32 1
  store i32 %19, i32* %23, align 4
  br label %24

24:                                               ; preds = %11
  %25 = load i32, i32* %2, align 4
  %26 = add nsw i32 %25, 1
  store i32 %26, i32* %2, align 4
  br label %7

27:                                               ; preds = %7
  %28 = load i32, i32* %3, align 4
  %29 = sext i32 %28 to i64
  call void @qsort(i8* bitcast ([100000 x %struct.st]* @s to i8*), i64 %29, i64 8, i32 (i8*, i8*)* @comp)
  %30 = load i32, i32* getelementptr inbounds ([100000 x %struct.st], [100000 x %struct.st]* @s, i64 0, i64 0, i32 0), align 16
  %31 = load i32, i32* getelementptr inbounds ([100000 x %struct.st], [100000 x %struct.st]* @s, i64 0, i64 0, i32 1), align 4
  %32 = load i32, i32* getelementptr inbounds ([100000 x %struct.st], [100000 x %struct.st]* @s, i64 0, i64 1, i32 0), align 8
  %33 = load i32, i32* getelementptr inbounds ([100000 x %struct.st], [100000 x %struct.st]* @s, i64 0, i64 1, i32 1), align 4
  %34 = load i32, i32* getelementptr inbounds ([100000 x %struct.st], [100000 x %struct.st]* @s, i64 0, i64 2, i32 0), align 16
  %35 = load i32, i32* getelementptr inbounds ([100000 x %struct.st], [100000 x %struct.st]* @s, i64 0, i64 2, i32 1), align 4
  %36 = call i32 (i8*, ...) @printf(i8* getelementptr inbounds ([18 x i8], [18 x i8]* @.str.2, i64 0, i64 0), i32 %30, i32 %31, i32 %32, i32 %33, i32 %34, i32 %35)
  ret i32 0
}

declare dso_local i32 @__isoc99_scanf(i8*, ...) #1

declare dso_local void @qsort(i8*, i64, i64, i32 (i8*, i8*)*) #1

declare dso_local i32 @printf(i8*, ...) #1


!llvm.module.flags = !{!0}
!llvm.ident = !{!1}

!0 = !{i32 1, !"wchar_size", i32 4}
!1 = !{!"clang version 10.0.0-4ubuntu1 "}
