; ModuleID = 'source-C-CXX/13/691.c'
source_filename = "source-C-CXX/13/691.c"
target datalayout = "e-m:e-p270:32:32-p271:32:32-p272:64:64-i64:64-f80:128-n8:16:32:64-S128"
target triple = "x86_64-pc-linux-gnu"

%struct.st = type { i32, i32 }

@.str = private unnamed_addr constant [3 x i8] c"%d\00", align 1
@.str.1 = private unnamed_addr constant [7 x i8] c"%d%d%d\00", align 1
@s = dso_local global [100000 x %struct.st] zeroinitializer, align 16
@.str.2 = private unnamed_addr constant [18 x i8] c"%d %d\0A%d %d\0A%d %d\00", align 1

; Function Attrs: mustprogress nofree norecurse nosync nounwind readonly sspstrong uwtable willreturn
define dso_local i32 @comp(i8* nocapture readonly %0, i8* nocapture readonly %1) #0 {
  %3 = getelementptr inbounds i8, i8* %1, i64 4
  %4 = bitcast i8* %3 to i32*
  %5 = load i32, i32* %4, align 4, !tbaa !5
  %6 = getelementptr inbounds i8, i8* %0, i64 4
  %7 = bitcast i8* %6 to i32*
  %8 = load i32, i32* %7, align 4, !tbaa !5
  %9 = sub nsw i32 %5, %8
  ret i32 %9
}

; Function Attrs: nofree nounwind sspstrong uwtable
define dso_local i32 @main() local_unnamed_addr #1 {
  %1 = alloca i32, align 4
  %2 = alloca i32, align 4
  %3 = alloca i32, align 4
  %4 = bitcast i32* %1 to i8*
  call void @llvm.lifetime.start.p0i8(i64 4, i8* nonnull %4) #5
  %5 = bitcast i32* %2 to i8*
  call void @llvm.lifetime.start.p0i8(i64 4, i8* nonnull %5) #5
  %6 = bitcast i32* %3 to i8*
  call void @llvm.lifetime.start.p0i8(i64 4, i8* nonnull %6) #5
  %7 = call i32 (i8*, ...) @__isoc99_scanf(i8* getelementptr inbounds ([3 x i8], [3 x i8]* @.str, i64 0, i64 0), i32* nonnull %1)
  %8 = load i32, i32* %1, align 4, !tbaa !10
  %9 = icmp sgt i32 %8, 0
  br i1 %9, label %10, label %22

10:                                               ; preds = %0, %10
  %11 = phi i64 [ %18, %10 ], [ 0, %0 ]
  %12 = getelementptr inbounds [100000 x %struct.st], [100000 x %struct.st]* @s, i64 0, i64 %11, i32 0
  %13 = call i32 (i8*, ...) @__isoc99_scanf(i8* getelementptr inbounds ([7 x i8], [7 x i8]* @.str.1, i64 0, i64 0), i32* nonnull %12, i32* nonnull %2, i32* nonnull %3)
  %14 = load i32, i32* %2, align 4, !tbaa !10
  %15 = load i32, i32* %3, align 4, !tbaa !10
  %16 = add nsw i32 %15, %14
  %17 = getelementptr inbounds [100000 x %struct.st], [100000 x %struct.st]* @s, i64 0, i64 %11, i32 1
  store i32 %16, i32* %17, align 4, !tbaa !5
  %18 = add nuw nsw i64 %11, 1
  %19 = load i32, i32* %1, align 4, !tbaa !10
  %20 = sext i32 %19 to i64
  %21 = icmp slt i64 %18, %20
  br i1 %21, label %10, label %22, !llvm.loop !11

22:                                               ; preds = %10, %0
  %23 = phi i32 [ %8, %0 ], [ %19, %10 ]
  %24 = sext i32 %23 to i64
  call void @qsort(i8* bitcast ([100000 x %struct.st]* @s to i8*), i64 %24, i64 8, i32 (i8*, i8*)* nonnull @comp) #5
  %25 = load i32, i32* getelementptr inbounds ([100000 x %struct.st], [100000 x %struct.st]* @s, i64 0, i64 0, i32 0), align 16, !tbaa !13
  %26 = load i32, i32* getelementptr inbounds ([100000 x %struct.st], [100000 x %struct.st]* @s, i64 0, i64 0, i32 1), align 4, !tbaa !5
  %27 = load i32, i32* getelementptr inbounds ([100000 x %struct.st], [100000 x %struct.st]* @s, i64 0, i64 1, i32 0), align 8, !tbaa !13
  %28 = load i32, i32* getelementptr inbounds ([100000 x %struct.st], [100000 x %struct.st]* @s, i64 0, i64 1, i32 1), align 4, !tbaa !5
  %29 = load i32, i32* getelementptr inbounds ([100000 x %struct.st], [100000 x %struct.st]* @s, i64 0, i64 2, i32 0), align 16, !tbaa !13
  %30 = load i32, i32* getelementptr inbounds ([100000 x %struct.st], [100000 x %struct.st]* @s, i64 0, i64 2, i32 1), align 4, !tbaa !5
  %31 = call i32 (i8*, ...) @printf(i8* nonnull dereferenceable(1) getelementptr inbounds ([18 x i8], [18 x i8]* @.str.2, i64 0, i64 0), i32 %25, i32 %26, i32 %27, i32 %28, i32 %29, i32 %30)
  call void @llvm.lifetime.end.p0i8(i64 4, i8* nonnull %6) #5
  call void @llvm.lifetime.end.p0i8(i64 4, i8* nonnull %5) #5
  call void @llvm.lifetime.end.p0i8(i64 4, i8* nonnull %4) #5
  ret i32 0
}

; Function Attrs: argmemonly mustprogress nofree nosync nounwind willreturn
declare void @llvm.lifetime.start.p0i8(i64 immarg, i8* nocapture) #2

; Function Attrs: nofree nounwind
declare noundef i32 @__isoc99_scanf(i8* nocapture noundef readonly, ...) local_unnamed_addr #3

; Function Attrs: nofree
declare void @qsort(i8* noundef, i64 noundef, i64 noundef, i32 (i8*, i8*)* nocapture noundef) local_unnamed_addr #4

; Function Attrs: nofree nounwind
declare noundef i32 @printf(i8* nocapture noundef readonly, ...) local_unnamed_addr #3

; Function Attrs: argmemonly mustprogress nofree nosync nounwind willreturn
declare void @llvm.lifetime.end.p0i8(i64 immarg, i8* nocapture) #2


!llvm.module.flags = !{!0, !1, !2, !3}
!llvm.ident = !{!4}

!0 = !{i32 1, !"wchar_size", i32 4}
!1 = !{i32 7, !"PIC Level", i32 2}
!2 = !{i32 7, !"PIE Level", i32 2}
!3 = !{i32 7, !"uwtable", i32 1}
!4 = !{!"clang version 13.0.0"}
!5 = !{!6, !7, i64 4}
!6 = !{!"st", !7, i64 0, !7, i64 4}
!7 = !{!"int", !8, i64 0}
!8 = !{!"omnipotent char", !9, i64 0}
!9 = !{!"Simple C/C++ TBAA"}
!10 = !{!7, !7, i64 0}
!11 = distinct !{!11, !12}
!12 = !{!"llvm.loop.mustprogress"}
!13 = !{!6, !7, i64 0}
